target datalayout = "e-m:e-p270:32:32-p271:32:32-p272:64:64-i64:64-i128:128-f80:128-n8:16:32:64-S128"
target triple = "x86_64-pc-linux-gnu"

%struct.FunctionCallInfoBaseData = type { ptr, ptr, ptr, i32, i8, i16, [0 x %struct.NullableDatum] }
%struct.NullableDatum = type { i64, i8 }

; Function Attrs: inlinehint nounwind uwtable
define internal ptr @DatumGetPointer(i64 noundef %0) #2 {
  %2 = alloca i64, align 8
  store i64 %0, ptr %2, align 8
  %3 = load i64, ptr %2, align 8
  %4 = inttoptr i64 %3 to ptr
  ret ptr %4
}

; Function Attrs: inlinehint nounwind uwtable
define internal i64 @Int32GetDatum(i32 noundef %0) #2 {
  %2 = alloca i32, align 4
  store i32 %0, ptr %2, align 4
  %3 = load i32, ptr %2, align 4
  %4 = sext i32 %3 to i64
  ret i64 %4
}

; Function Attrs: inlinehint nounwind uwtable
define internal zeroext i1 @DatumGetBool(i64 noundef %0) #2 {
  %2 = alloca i64, align 8
  store i64 %0, ptr %2, align 8
  %3 = load i64, ptr %2, align 8
  %4 = icmp ne i64 %3, 0
  ret i1 %4
}

; Function Attrs: inlinehint nounwind uwtable
define internal i32 @DatumGetInt32(i64 noundef %0) #2 {
  %2 = alloca i64, align 8
  store i64 %0, ptr %2, align 8
  %3 = load i64, ptr %2, align 8
  %4 = trunc i64 %3 to i32
  ret i32 %4
}

; Function Attrs: inlinehint nounwind uwtable
define internal ptr @DatumGetCString(i64 noundef %0) #2 {
  %2 = alloca i64, align 8
  store i64 %0, ptr %2, align 8
  %3 = load i64, ptr %2, align 8
  %4 = call ptr @DatumGetPointer(i64 noundef %3)
  ret ptr %4
}

; Function Attrs: nounwind uwtable
define i64 @utf8_to_iso8859_1(ptr noundef %0) #0 {
  %2 = alloca ptr, align 8
  %3 = alloca ptr, align 8
  %4 = alloca ptr, align 8
  %5 = alloca i32, align 4
  %6 = alloca i8, align 1
  %7 = alloca ptr, align 8
  %8 = alloca i16, align 2
  %9 = alloca i16, align 2
  %10 = alloca i32, align 4
  %11 = alloca i32, align 4
  store ptr %0, ptr %2, align 8
  call void @llvm.lifetime.start.p0(i64 8, ptr %3) #5
  %12 = load ptr, ptr %2, align 8
  %13 = getelementptr inbounds nuw %struct.FunctionCallInfoBaseData, ptr %12, i32 0, i32 6
  %14 = getelementptr inbounds [0 x %struct.NullableDatum], ptr %13, i64 0, i64 2
  %15 = getelementptr inbounds nuw %struct.NullableDatum, ptr %14, i32 0, i32 0
  %16 = load i64, ptr %15, align 8
  %17 = call ptr @DatumGetCString(i64 noundef %16)
  store ptr %17, ptr %3, align 8
  call void @llvm.lifetime.start.p0(i64 8, ptr %4) #5
  %18 = load ptr, ptr %2, align 8
  %19 = getelementptr inbounds nuw %struct.FunctionCallInfoBaseData, ptr %18, i32 0, i32 6
  %20 = getelementptr inbounds [0 x %struct.NullableDatum], ptr %19, i64 0, i64 3
  %21 = getelementptr inbounds nuw %struct.NullableDatum, ptr %20, i32 0, i32 0
  %22 = load i64, ptr %21, align 8
  %23 = call ptr @DatumGetCString(i64 noundef %22)
  store ptr %23, ptr %4, align 8
  call void @llvm.lifetime.start.p0(i64 4, ptr %5) #5
  %24 = load ptr, ptr %2, align 8
  %25 = getelementptr inbounds nuw %struct.FunctionCallInfoBaseData, ptr %24, i32 0, i32 6
  %26 = getelementptr inbounds [0 x %struct.NullableDatum], ptr %25, i64 0, i64 4
  %27 = getelementptr inbounds nuw %struct.NullableDatum, ptr %26, i32 0, i32 0
  %28 = load i64, ptr %27, align 8
  %29 = call i32 @DatumGetInt32(i64 noundef %28)
  store i32 %29, ptr %5, align 4
  call void @llvm.lifetime.start.p0(i64 1, ptr %6) #5
  %30 = load ptr, ptr %2, align 8
  %31 = getelementptr inbounds nuw %struct.FunctionCallInfoBaseData, ptr %30, i32 0, i32 6
  %32 = getelementptr inbounds [0 x %struct.NullableDatum], ptr %31, i64 0, i64 5
  %33 = getelementptr inbounds nuw %struct.NullableDatum, ptr %32, i32 0, i32 0
  %34 = load i64, ptr %33, align 8
  %35 = call zeroext i1 @DatumGetBool(i64 noundef %34)
  %36 = zext i1 %35 to i8
  store i8 %36, ptr %6, align 1
  call void @llvm.lifetime.start.p0(i64 8, ptr %7) #5
  %37 = load ptr, ptr %3, align 8
  store ptr %37, ptr %7, align 8
  call void @llvm.lifetime.start.p0(i64 2, ptr %8) #5
  call void @llvm.lifetime.start.p0(i64 2, ptr %9) #5
  %38 = load ptr, ptr %2, align 8
  %39 = getelementptr inbounds nuw %struct.FunctionCallInfoBaseData, ptr %38, i32 0, i32 6
  %40 = getelementptr inbounds [0 x %struct.NullableDatum], ptr %39, i64 0, i64 0
  %41 = getelementptr inbounds nuw %struct.NullableDatum, ptr %40, i32 0, i32 0
  %42 = load i64, ptr %41, align 8
  %43 = call i32 @DatumGetInt32(i64 noundef %42)
  %44 = load ptr, ptr %2, align 8
  %45 = getelementptr inbounds nuw %struct.FunctionCallInfoBaseData, ptr %44, i32 0, i32 6
  %46 = getelementptr inbounds [0 x %struct.NullableDatum], ptr %45, i64 0, i64 1
  %47 = getelementptr inbounds nuw %struct.NullableDatum, ptr %46, i32 0, i32 0
  %48 = load i64, ptr %47, align 8
  %49 = call i32 @DatumGetInt32(i64 noundef %48)
  %50 = load ptr, ptr %2, align 8
  %51 = getelementptr inbounds nuw %struct.FunctionCallInfoBaseData, ptr %50, i32 0, i32 6
  %52 = getelementptr inbounds [0 x %struct.NullableDatum], ptr %51, i64 0, i64 4
  %53 = getelementptr inbounds nuw %struct.NullableDatum, ptr %52, i32 0, i32 0
  %54 = load i64, ptr %53, align 8
  %55 = call i32 @DatumGetInt32(i64 noundef %54)
  call void @check_encoding_conversion_args(i32 noundef %43, i32 noundef %49, i32 noundef %55, i32 noundef 6, i32 noundef 8)
  br label %56

56:                                               ; preds = %157, %1
  %57 = load i32, ptr %5, align 4
  %58 = icmp sgt i32 %57, 0
  br i1 %58, label %59, label %158

59:                                               ; preds = %56
  %60 = load ptr, ptr %3, align 8
  %61 = load i8, ptr %60, align 1
  %62 = zext i8 %61 to i16
  store i16 %62, ptr %8, align 2
  %63 = load i16, ptr %8, align 2
  %64 = zext i16 %63 to i32
  %65 = icmp eq i32 %64, 0
  br i1 %65, label %66, label %73

66:                                               ; preds = %59
  %67 = load i8, ptr %6, align 1, !range !3, !noundef !4
  %68 = trunc i8 %67 to i1
  br i1 %68, label %69, label %70

69:                                               ; preds = %66
  br label %158

70:                                               ; preds = %66
  %71 = load ptr, ptr %3, align 8
  %72 = load i32, ptr %5, align 4
  call void @report_invalid_encoding(i32 noundef 6, ptr noundef %71, i32 noundef %72) #6
  unreachable

73:                                               ; preds = %59
  %74 = load i16, ptr %8, align 2
  %75 = trunc i16 %74 to i8
  %76 = zext i8 %75 to i32
  %77 = and i32 %76, 128
  %78 = icmp ne i32 %77, 0
  br i1 %78, label %88, label %79

79:                                               ; preds = %73
  %80 = load i16, ptr %8, align 2
  %81 = trunc i16 %80 to i8
  %82 = load ptr, ptr %4, align 8
  %83 = getelementptr inbounds nuw i8, ptr %82, i32 1
  store ptr %83, ptr %4, align 8
  store i8 %81, ptr %82, align 1
  %84 = load ptr, ptr %3, align 8
  %85 = getelementptr inbounds nuw i8, ptr %84, i32 1
  store ptr %85, ptr %3, align 8
  %86 = load i32, ptr %5, align 4
  %87 = add i32 %86, -1
  store i32 %87, ptr %5, align 4
  br label %157

88:                                               ; preds = %73
  call void @llvm.lifetime.start.p0(i64 4, ptr %10) #5
  %89 = load ptr, ptr %3, align 8
  %90 = call i32 @pg_utf_mblen_private(ptr noundef %89)
  store i32 %90, ptr %10, align 4
  %91 = load i32, ptr %10, align 4
  %92 = load i32, ptr %5, align 4
  %93 = icmp sgt i32 %91, %92
  br i1 %93, label %98, label %94

94:                                               ; preds = %88
  %95 = load ptr, ptr %3, align 8
  %96 = load i32, ptr %10, align 4
  %97 = call zeroext i1 @pg_utf8_islegal(ptr noundef %95, i32 noundef %96)
  br i1 %97, label %105, label %98

98:                                               ; preds = %94, %88
  %99 = load i8, ptr %6, align 1, !range !3, !noundef !4
  %100 = trunc i8 %99 to i1
  br i1 %100, label %101, label %102

101:                                              ; preds = %98
  store i32 3, ptr %11, align 4
  br label %154

102:                                              ; preds = %98
  %103 = load ptr, ptr %3, align 8
  %104 = load i32, ptr %5, align 4
  call void @report_invalid_encoding(i32 noundef 6, ptr noundef %103, i32 noundef %104) #6
  unreachable

105:                                              ; preds = %94
  %106 = load i32, ptr %10, align 4
  %107 = icmp ne i32 %106, 2
  br i1 %107, label %108, label %115

108:                                              ; preds = %105
  %109 = load i8, ptr %6, align 1, !range !3, !noundef !4
  %110 = trunc i8 %109 to i1
  br i1 %110, label %111, label %112

111:                                              ; preds = %108
  store i32 3, ptr %11, align 4
  br label %154

112:                                              ; preds = %108
  %113 = load ptr, ptr %3, align 8
  %114 = load i32, ptr %5, align 4
  call void @report_untranslatable_char(i32 noundef 6, i32 noundef 8, ptr noundef %113, i32 noundef %114) #6
  unreachable

115:                                              ; preds = %105
  %116 = load ptr, ptr %3, align 8
  %117 = getelementptr inbounds i8, ptr %116, i64 1
  %118 = load i8, ptr %117, align 1
  %119 = zext i8 %118 to i32
  %120 = and i32 %119, 63
  %121 = trunc i32 %120 to i16
  store i16 %121, ptr %9, align 2
  %122 = load i16, ptr %8, align 2
  %123 = zext i16 %122 to i32
  %124 = and i32 %123, 31
  %125 = shl i32 %124, 6
  %126 = load i16, ptr %9, align 2
  %127 = zext i16 %126 to i32
  %128 = or i32 %125, %127
  %129 = trunc i32 %128 to i16
  store i16 %129, ptr %8, align 2
  %130 = load i16, ptr %8, align 2
  %131 = zext i16 %130 to i32
  %132 = icmp sge i32 %131, 128
  br i1 %132, label %133, label %146

133:                                              ; preds = %115
  %134 = load i16, ptr %8, align 2
  %135 = zext i16 %134 to i32
  %136 = icmp sle i32 %135, 255
  br i1 %136, label %137, label %146

137:                                              ; preds = %133
  %138 = load i16, ptr %8, align 2
  %139 = trunc i16 %138 to i8
  %140 = load ptr, ptr %4, align 8
  %141 = getelementptr inbounds nuw i8, ptr %140, i32 1
  store ptr %141, ptr %4, align 8
  store i8 %139, ptr %140, align 1
  %142 = load ptr, ptr %3, align 8
  %143 = getelementptr inbounds i8, ptr %142, i64 2
  store ptr %143, ptr %3, align 8
  %144 = load i32, ptr %5, align 4
  %145 = sub i32 %144, 2
  store i32 %145, ptr %5, align 4
  br label %153

146:                                              ; preds = %133, %115
  %147 = load i8, ptr %6, align 1, !range !3, !noundef !4
  %148 = trunc i8 %147 to i1
  br i1 %148, label %149, label %150

149:                                              ; preds = %146
  store i32 3, ptr %11, align 4
  br label %154

150:                                              ; preds = %146
  %151 = load ptr, ptr %3, align 8
  %152 = load i32, ptr %5, align 4
  call void @report_untranslatable_char(i32 noundef 6, i32 noundef 8, ptr noundef %151, i32 noundef %152) #6
  unreachable

153:                                              ; preds = %137
  store i32 0, ptr %11, align 4
  br label %154

154:                                              ; preds = %153, %149, %111, %101
  call void @llvm.lifetime.end.p0(i64 4, ptr %10) #5
  %155 = load i32, ptr %11, align 4
  switch i32 %155, label %167 [
    i32 0, label %156
    i32 3, label %158
  ]

156:                                              ; preds = %154
  br label %157

157:                                              ; preds = %156, %79
  br label %56, !llvm.loop !7

158:                                              ; preds = %154, %69, %56
  %159 = load ptr, ptr %4, align 8
  store i8 0, ptr %159, align 1
  %160 = load ptr, ptr %3, align 8
  %161 = load ptr, ptr %7, align 8
  %162 = ptrtoint ptr %160 to i64
  %163 = ptrtoint ptr %161 to i64
  %164 = sub i64 %162, %163
  %165 = trunc i64 %164 to i32
  %166 = call i64 @Int32GetDatum(i32 noundef %165)
  store i32 1, ptr %11, align 4
  call void @llvm.lifetime.end.p0(i64 2, ptr %9) #5
  call void @llvm.lifetime.end.p0(i64 2, ptr %8) #5
  call void @llvm.lifetime.end.p0(i64 8, ptr %7) #5
  call void @llvm.lifetime.end.p0(i64 1, ptr %6) #5
  call void @llvm.lifetime.end.p0(i64 4, ptr %5) #5
  call void @llvm.lifetime.end.p0(i64 8, ptr %4) #5
  call void @llvm.lifetime.end.p0(i64 8, ptr %3) #5
  ret i64 %166

167:                                              ; preds = %154
  unreachable
}